target datalayout = "e-m:e-p270:32:32-p271:32:32-p272:64:64-i64:64-i128:128-f80:128-n8:16:32:64-S128"
target triple = "x86_64-pc-linux-gnu"

%"class.lean::elab_environment" = type { %"class.lean::object_ref" }
%"class.lean::object_ref" = type { ptr }
%"class.std::_Function_base" = type { %"union.std::_Any_data", ptr }
%"union.std::_Any_data" = type { %"union.std::_Nocopy_types" }
%"union.std::_Nocopy_types" = type { { i64, i64 } }
%"class.std::function.2" = type { %"class.std::_Function_base", ptr }
%class.anon.5 = type { ptr, ptr, ptr }

; Function Attrs: mustprogress nounwind uwtable
define linkonce_odr hidden noundef ptr @_ZNSt9_Any_data9_M_accessEv(ptr noundef nonnull align 8 dereferenceable(16) %0) #5 comdat align 2 {
  %2 = alloca ptr, align 8
  store ptr %0, ptr %2, align 8, !tbaa !92
  %3 = load ptr, ptr %2, align 8
  %4 = getelementptr inbounds [16 x i8], ptr %3, i64 0, i64 0
  ret ptr %4
}

; Function Attrs: mustprogress nounwind uwtable
define internal noundef nonnull align 8 dereferenceable(8) ptr @"_ZNSt9_Any_data9_M_accessIPZ16lean_kernel_whnfE3$_0EERT_v"(ptr noundef nonnull align 8 dereferenceable(16) %0) #5 align 2 {
  %2 = alloca ptr, align 8
  store ptr %0, ptr %2, align 8, !tbaa !92
  %3 = load ptr, ptr %2, align 8
  %4 = call noundef ptr @_ZNSt9_Any_data9_M_accessEv(ptr noundef nonnull align 8 dereferenceable(16) %3) #17
  ret ptr %4
}

; Function Attrs: mustprogress uwtable
define internal void @"_ZNSt14_Function_base13_Base_managerIZ16lean_kernel_whnfE3$_0E9_M_createIS1_EEvRSt9_Any_dataOT_St17integral_constantIbLb0EE"(ptr noundef nonnull align 8 dereferenceable(16) %0, ptr noundef nonnull align 8 dereferenceable(24) %1) #0 align 2 {
  %3 = alloca ptr, align 8
  %4 = alloca ptr, align 8
  store ptr %0, ptr %3, align 8, !tbaa !92
  store ptr %1, ptr %4, align 8, !tbaa !18
  %5 = call noalias noundef nonnull ptr @_Znwm(i64 noundef 24) #20
  %6 = load ptr, ptr %4, align 8, !tbaa !18
  call void @llvm.memcpy.p0.p0.i64(ptr align 16 %5, ptr align 8 %6, i64 24, i1 false), !tbaa.struct !115
  %7 = load ptr, ptr %3, align 8, !tbaa !92
  %8 = call noundef nonnull align 8 dereferenceable(8) ptr @"_ZNSt9_Any_data9_M_accessIPZ16lean_kernel_whnfE3$_0EERT_v"(ptr noundef nonnull align 8 dereferenceable(16) %7) #17
  store ptr %5, ptr %8, align 8, !tbaa !18
  ret void
}

; Function Attrs: mustprogress uwtable
define internal void @"_ZNSt14_Function_base13_Base_managerIZ16lean_kernel_whnfE3$_0E15_M_init_functorIS1_EEvRSt9_Any_dataOT_"(ptr noundef nonnull align 8 dereferenceable(16) %0, ptr noundef nonnull align 8 dereferenceable(24) %1) #0 align 2 {
  %3 = alloca ptr, align 8
  %4 = alloca ptr, align 8
  store ptr %0, ptr %3, align 8, !tbaa !92
  store ptr %1, ptr %4, align 8, !tbaa !18
  %5 = load ptr, ptr %3, align 8, !tbaa !92
  %6 = load ptr, ptr %4, align 8, !tbaa !18
  call void @"_ZNSt14_Function_base13_Base_managerIZ16lean_kernel_whnfE3$_0E9_M_createIS1_EEvRSt9_Any_dataOT_St17integral_constantIbLb0EE"(ptr noundef nonnull align 8 dereferenceable(16) %5, ptr noundef nonnull align 8 dereferenceable(24) %6)
  ret void
}

; Function Attrs: mustprogress nounwind uwtable
define internal noundef zeroext i1 @"_ZNSt14_Function_base13_Base_managerIZ16lean_kernel_whnfE3$_0E21_M_not_empty_functionIS1_EEbRKT_"(ptr noundef nonnull align 8 dereferenceable(24) %0) #5 align 2 {
  %2 = alloca ptr, align 8
  store ptr %0, ptr %2, align 8, !tbaa !18
  ret i1 true
}

; Function Attrs: mustprogress nounwind uwtable
define linkonce_odr hidden void @_ZNSt14_Function_baseC2Ev(ptr noundef nonnull align 8 dereferenceable(24) %0) unnamed_addr #5 comdat align 2 {
  %2 = alloca ptr, align 8
  store ptr %0, ptr %2, align 8, !tbaa !76
  %3 = load ptr, ptr %2, align 8
  %4 = getelementptr inbounds nuw %"class.std::_Function_base", ptr %3, i32 0, i32 0
  store ptr null, ptr %4, align 8, !tbaa !91
  %5 = getelementptr inbounds nuw %"class.std::_Function_base", ptr %3, i32 0, i32 1
  store ptr null, ptr %5, align 8, !tbaa !58
  ret void
}

; Function Attrs: mustprogress nounwind uwtable
define linkonce_odr hidden void @_ZN4lean10object_refC2EP11lean_object(ptr noundef nonnull align 8 dereferenceable(8) %0, ptr noundef %1) unnamed_addr #5 comdat align 2 {
  %3 = alloca ptr, align 8
  %4 = alloca ptr, align 8
  store ptr %0, ptr %3, align 8, !tbaa !14
  store ptr %1, ptr %4, align 8, !tbaa !18
  %5 = load ptr, ptr %3, align 8
  %6 = getelementptr inbounds nuw %"class.lean::object_ref", ptr %5, i32 0, i32 0
  %7 = load ptr, ptr %4, align 8, !tbaa !18
  store ptr %7, ptr %6, align 8, !tbaa !16
  ret void
}

; Function Attrs: mustprogress nounwind uwtable
define linkonce_odr hidden void @_ZNSt14_Function_baseD2Ev(ptr noundef nonnull align 8 dereferenceable(24) %0) unnamed_addr #5 comdat align 2 personality ptr @__gxx_personality_v0 {
  %2 = alloca ptr, align 8
  store ptr %0, ptr %2, align 8, !tbaa !76
  %3 = load ptr, ptr %2, align 8
  %4 = getelementptr inbounds nuw %"class.std::_Function_base", ptr %3, i32 0, i32 1
  %5 = load ptr, ptr %4, align 8, !tbaa !58
  %6 = icmp ne ptr %5, null
  br i1 %6, label %7, label %14

7:                                                ; preds = %1
  %8 = getelementptr inbounds nuw %"class.std::_Function_base", ptr %3, i32 0, i32 1
  %9 = load ptr, ptr %8, align 8, !tbaa !58
  %10 = getelementptr inbounds nuw %"class.std::_Function_base", ptr %3, i32 0, i32 0
  %11 = getelementptr inbounds nuw %"class.std::_Function_base", ptr %3, i32 0, i32 0
  %12 = invoke noundef zeroext i1 %9(ptr noundef nonnull align 8 dereferenceable(16) %10, ptr noundef nonnull align 8 dereferenceable(16) %11, i32 noundef 3)
          to label %13 unwind label %15

13:                                               ; preds = %7
  br label %14

14:                                               ; preds = %13, %1
  ret void

15:                                               ; preds = %7
  %16 = landingpad { ptr, i32 }
          catch ptr null
  %17 = extractvalue { ptr, i32 } %16, 0
  call void @__clang_call_terminate(ptr %17) #18
  unreachable
}

; Function Attrs: mustprogress uwtable
define internal void @"_ZNSt8functionIFP11lean_objectvEEC2IZ16lean_kernel_whnfE3$_0vEEOT_"(ptr noundef nonnull align 8 dereferenceable(32) %0, ptr noundef nonnull align 8 dereferenceable(24) %1) unnamed_addr #0 align 2 personality ptr @__gxx_personality_v0 {
  %3 = alloca ptr, align 8
  %4 = alloca ptr, align 8
  %5 = alloca ptr, align 8
  %6 = alloca i32, align 4
  store ptr %0, ptr %3, align 8, !tbaa !72
  store ptr %1, ptr %4, align 8, !tbaa !18
  %7 = load ptr, ptr %3, align 8
  %8 = getelementptr inbounds i8, ptr %7, i64 0
  call void @llvm.memset.p0.i64(ptr align 8 %8, i8 0, i64 24, i1 false)
  call void @_ZNSt14_Function_baseC2Ev(ptr noundef nonnull align 8 dereferenceable(24) %7) #17
  %9 = getelementptr inbounds nuw %"class.std::function.2", ptr %7, i32 0, i32 1
  store ptr null, ptr %9, align 8, !tbaa !74
  %10 = load ptr, ptr %4, align 8, !tbaa !18
  %11 = call noundef zeroext i1 @"_ZNSt14_Function_base13_Base_managerIZ16lean_kernel_whnfE3$_0E21_M_not_empty_functionIS1_EEbRKT_"(ptr noundef nonnull align 8 dereferenceable(24) %10) #17
  br i1 %11, label %12, label %22

12:                                               ; preds = %2
  %13 = getelementptr inbounds nuw %"class.std::_Function_base", ptr %7, i32 0, i32 0
  %14 = load ptr, ptr %4, align 8, !tbaa !18
  invoke void @"_ZNSt14_Function_base13_Base_managerIZ16lean_kernel_whnfE3$_0E15_M_init_functorIS1_EEvRSt9_Any_dataOT_"(ptr noundef nonnull align 8 dereferenceable(16) %13, ptr noundef nonnull align 8 dereferenceable(24) %14)
          to label %15 unwind label %18

15:                                               ; preds = %12
  %16 = getelementptr inbounds nuw %"class.std::function.2", ptr %7, i32 0, i32 1
  store ptr @"_ZNSt17_Function_handlerIFP11lean_objectvEZ16lean_kernel_whnfE3$_0E9_M_invokeERKSt9_Any_data", ptr %16, align 8, !tbaa !74
  %17 = getelementptr inbounds nuw %"class.std::_Function_base", ptr %7, i32 0, i32 1
  store ptr @"_ZNSt17_Function_handlerIFP11lean_objectvEZ16lean_kernel_whnfE3$_0E10_M_managerERSt9_Any_dataRKS5_St18_Manager_operation", ptr %17, align 8, !tbaa !58
  br label %22

18:                                               ; preds = %12
  %19 = landingpad { ptr, i32 }
          cleanup
  %20 = extractvalue { ptr, i32 } %19, 0
  store ptr %20, ptr %5, align 8
  %21 = extractvalue { ptr, i32 } %19, 1
  store i32 %21, ptr %6, align 4
  call void @_ZNSt14_Function_baseD2Ev(ptr noundef nonnull align 8 dereferenceable(24) %7) #17
  br label %23

22:                                               ; preds = %15, %2
  ret void

23:                                               ; preds = %18
  %24 = load ptr, ptr %5, align 8
  %25 = load i32, ptr %6, align 4
  %26 = insertvalue { ptr, i32 } poison, ptr %24, 0
  %27 = insertvalue { ptr, i32 } %26, i32 %25, 1
  resume { ptr, i32 } %27
}

; Function Attrs: mustprogress uwtable
define linkonce_odr hidden void @_ZN4lean16elab_environmentC2EP11lean_object(ptr noundef nonnull align 8 dereferenceable(8) %0, ptr noundef %1) unnamed_addr #0 comdat align 2 {
  %3 = alloca ptr, align 8
  %4 = alloca ptr, align 8
  store ptr %0, ptr %3, align 8, !tbaa !3
  store ptr %1, ptr %4, align 8, !tbaa !18
  %5 = load ptr, ptr %3, align 8
  %6 = load ptr, ptr %4, align 8, !tbaa !18
  call void @_ZN4lean10object_refC2EP11lean_object(ptr noundef nonnull align 8 dereferenceable(8) %5, ptr noundef %6)
  ret void
}

; Function Attrs: mustprogress uwtable
define ptr @lean_kernel_whnf(ptr noundef %0, ptr noundef %1, ptr noundef %2) #0 personality ptr @__gxx_personality_v0 {
  %4 = alloca ptr, align 8
  %5 = alloca ptr, align 8
  %6 = alloca ptr, align 8
  %7 = alloca %"class.lean::elab_environment", align 8
  %8 = alloca %"class.std::function.2", align 8
  %9 = alloca %class.anon.5, align 8
  %10 = alloca ptr, align 8
  %11 = alloca i32, align 4
  store ptr %0, ptr %4, align 8, !tbaa !18
  store ptr %1, ptr %5, align 8, !tbaa !18
  store ptr %2, ptr %6, align 8, !tbaa !18
  call void @llvm.lifetime.start.p0(i64 8, ptr %7) #17
  %12 = load ptr, ptr %4, align 8, !tbaa !18
  call void @_ZN4lean16elab_environmentC2EP11lean_object(ptr noundef nonnull align 8 dereferenceable(8) %7, ptr noundef %12)
  call void @llvm.lifetime.start.p0(i64 32, ptr %8) #17
  call void @llvm.lifetime.start.p0(i64 24, ptr %9) #17
  %13 = getelementptr inbounds nuw %class.anon.5, ptr %9, i32 0, i32 0
  store ptr %7, ptr %13, align 8, !tbaa !3
  %14 = getelementptr inbounds nuw %class.anon.5, ptr %9, i32 0, i32 1
  store ptr %5, ptr %14, align 8, !tbaa !21
  %15 = getelementptr inbounds nuw %class.anon.5, ptr %9, i32 0, i32 2
  store ptr %6, ptr %15, align 8, !tbaa !21
  invoke void @"_ZNSt8functionIFP11lean_objectvEEC2IZ16lean_kernel_whnfE3$_0vEEOT_"(ptr noundef nonnull align 8 dereferenceable(32) %8, ptr noundef nonnull align 8 dereferenceable(24) %9)
          to label %16 unwind label %19

16:                                               ; preds = %3
  %17 = invoke noundef ptr @_ZN4lean23catch_kernel_exceptionsIP11lean_objectEES2_RKSt8functionIFT_vEE(ptr noundef nonnull align 8 dereferenceable(32) %8)
          to label %18 unwind label %23

18:                                               ; preds = %16
  call void @_ZNSt14_Function_baseD2Ev(ptr noundef nonnull align 8 dereferenceable(32) %8) #17
  call void @llvm.lifetime.end.p0(i64 24, ptr %9) #17
  call void @llvm.lifetime.end.p0(i64 32, ptr %8) #17
  call void @_ZN4lean10object_refD2Ev(ptr noundef nonnull align 8 dereferenceable(8) %7) #17
  call void @llvm.lifetime.end.p0(i64 8, ptr %7) #17
  ret ptr %17

19:                                               ; preds = %3
  %20 = landingpad { ptr, i32 }
          cleanup
  %21 = extractvalue { ptr, i32 } %20, 0
  store ptr %21, ptr %10, align 8
  %22 = extractvalue { ptr, i32 } %20, 1
  store i32 %22, ptr %11, align 4
  br label %27

23:                                               ; preds = %16
  %24 = landingpad { ptr, i32 }
          cleanup
  %25 = extractvalue { ptr, i32 } %24, 0
  store ptr %25, ptr %10, align 8
  %26 = extractvalue { ptr, i32 } %24, 1
  store i32 %26, ptr %11, align 4
  call void @_ZNSt14_Function_baseD2Ev(ptr noundef nonnull align 8 dereferenceable(32) %8) #17
  br label %27

27:                                               ; preds = %23, %19
  call void @llvm.lifetime.end.p0(i64 24, ptr %9) #17
  call void @llvm.lifetime.end.p0(i64 32, ptr %8) #17
  call void @_ZN4lean10object_refD2Ev(ptr noundef nonnull align 8 dereferenceable(8) %7) #17
  call void @llvm.lifetime.end.p0(i64 8, ptr %7) #17
  br label %28

28:                                               ; preds = %27
  %29 = load ptr, ptr %10, align 8
  %30 = load i32, ptr %11, align 4
  %31 = insertvalue { ptr, i32 } poison, ptr %29, 0
  %32 = insertvalue { ptr, i32 } %31, i32 %30, 1
  resume { ptr, i32 } %32
}