; Function Attrs: mustprogress uwtable
define noundef ptr @lean_kernel_whnf(ptr noundef %0, ptr noundef %1, ptr noundef %2) local_unnamed_addr #0 personality ptr @__gxx_personality_v0 {
  %4 = alloca ptr, align 8
  %5 = alloca ptr, align 8
  %6 = alloca %"class.lean::elab_environment", align 8
  %7 = alloca %"class.std::function.2", align 8
  store ptr %1, ptr %4, align 8, !tbaa !15
  store ptr %2, ptr %5, align 8, !tbaa !15
  call void @llvm.lifetime.start.p0(i64 8, ptr nonnull %6) #15
  store ptr %0, ptr %6, align 8, !tbaa !6
  call void @llvm.lifetime.start.p0(i64 32, ptr nonnull %7) #15
  %8 = getelementptr inbounds nuw i8, ptr %7, i64 16
  %9 = getelementptr inbounds nuw i8, ptr %7, i64 8
  store i64 0, ptr %9, align 8
  %10 = invoke noalias noundef nonnull dereferenceable(24) ptr @_Znwm(i64 noundef 24) #18
          to label %11 unwind label %34

11:                                               ; preds = %3
  %12 = getelementptr inbounds nuw i8, ptr %7, i64 24
  store ptr %6, ptr %10, align 16, !tbaa !51
  %.sroa.5.0..sroa_idx = getelementptr inbounds nuw i8, ptr %10, i64 8
  store ptr %4, ptr %.sroa.5.0..sroa_idx, align 8, !tbaa !16
  %.sroa.6.0..sroa_idx = getelementptr inbounds nuw i8, ptr %10, i64 16
  store ptr %5, ptr %.sroa.6.0..sroa_idx, align 16, !tbaa !16
  store ptr %10, ptr %7, align 8, !tbaa !15
  store ptr @"_ZNSt17_Function_handlerIFP11lean_objectvEZ16lean_kernel_whnfE3$_0E9_M_invokeERKSt9_Any_data", ptr %12, align 8, !tbaa !53
  store ptr @"_ZNSt17_Function_handlerIFP11lean_objectvEZ16lean_kernel_whnfE3$_0E10_M_managerERSt9_Any_dataRKS5_St18_Manager_operation", ptr %8, align 8, !tbaa !21
  %13 = invoke noundef ptr @_ZN4lean23catch_kernel_exceptionsIP11lean_objectEES2_RKSt8functionIFT_vEE(ptr noundef nonnull align 8 dereferenceable(32) %7)
          to label %14 unwind label %36

14:                                               ; preds = %11
  %15 = load ptr, ptr %8, align 8, !tbaa !21
  %.not.i = icmp eq ptr %15, null
  br i1 %.not.i, label %_ZNSt14_Function_baseD2Ev.exit, label %16

16:                                               ; preds = %14
  %17 = invoke noundef zeroext i1 %15(ptr noundef nonnull align 8 dereferenceable(32) %7, ptr noundef nonnull align 8 dereferenceable(32) %7, i32 noundef 3)
          to label %_ZNSt14_Function_baseD2Ev.exit unwind label %18

18:                                               ; preds = %16
  %19 = landingpad { ptr, i32 }
          catch ptr null
  %20 = extractvalue { ptr, i32 } %19, 0
  call void @__clang_call_terminate(ptr %20) #16
  unreachable

_ZNSt14_Function_baseD2Ev.exit:                   ; preds = %14, %16
  call void @llvm.lifetime.end.p0(i64 32, ptr nonnull %7) #15
  %21 = load ptr, ptr %6, align 8, !tbaa !6
  %22 = ptrtoint ptr %21 to i64
  %23 = and i64 %22, 1
  %.not.i.i = icmp eq i64 %23, 0
  br i1 %.not.i.i, label %24, label %_ZN4lean10object_refD2Ev.exit

24:                                               ; preds = %_ZNSt14_Function_baseD2Ev.exit
  %25 = load i32, ptr %21, align 4, !tbaa !11
  %26 = icmp sgt i32 %25, 1
  br i1 %26, label %27, label %29, !prof !14

27:                                               ; preds = %24
  %28 = add nsw i32 %25, -1
  store i32 %28, ptr %21, align 4, !tbaa !11
  br label %_ZN4lean10object_refD2Ev.exit

29:                                               ; preds = %24
  %.not.i.i.i = icmp eq i32 %25, 0
  br i1 %.not.i.i.i, label %_ZN4lean10object_refD2Ev.exit, label %30

30:                                               ; preds = %29
  invoke void @lean_dec_ref_cold(ptr noundef nonnull %21)
          to label %_ZN4lean10object_refD2Ev.exit unwind label %31

31:                                               ; preds = %30
  %32 = landingpad { ptr, i32 }
          catch ptr null
  %33 = extractvalue { ptr, i32 } %32, 0
  call void @__clang_call_terminate(ptr %33) #16
  unreachable

_ZN4lean10object_refD2Ev.exit:                    ; preds = %_ZNSt14_Function_baseD2Ev.exit, %27, %29, %30
  call void @llvm.lifetime.end.p0(i64 8, ptr nonnull %6) #15
  ret ptr %13

34:                                               ; preds = %3
  %35 = landingpad { ptr, i32 }
          cleanup
  br label %_ZNSt14_Function_baseD2Ev.exit5

36:                                               ; preds = %11
  %37 = landingpad { ptr, i32 }
          cleanup
  %38 = load ptr, ptr %8, align 8, !tbaa !21
  %.not.i4 = icmp eq ptr %38, null
  br i1 %.not.i4, label %_ZNSt14_Function_baseD2Ev.exit5, label %39

39:                                               ; preds = %36
  %40 = invoke noundef zeroext i1 %38(ptr noundef nonnull align 8 dereferenceable(32) %7, ptr noundef nonnull align 8 dereferenceable(32) %7, i32 noundef 3)
          to label %_ZNSt14_Function_baseD2Ev.exit5 unwind label %41

41:                                               ; preds = %39
  %42 = landingpad { ptr, i32 }
          catch ptr null
  %43 = extractvalue { ptr, i32 } %42, 0
  call void @__clang_call_terminate(ptr %43) #16
  unreachable

_ZNSt14_Function_baseD2Ev.exit5:                  ; preds = %39, %36, %34
  %.pn = phi { ptr, i32 } [ %35, %34 ], [ %37, %36 ], [ %37, %39 ]
  call void @llvm.lifetime.end.p0(i64 32, ptr nonnull %7) #15
  call void @_ZN4lean10object_refD2Ev(ptr noundef nonnull align 8 dereferenceable(8) %6) #15
  call void @llvm.lifetime.end.p0(i64 8, ptr nonnull %6) #15
  resume { ptr, i32 } %.pn
}